; Function Attrs: mustprogress uwtable
define void @_ZN5draco10EntryValueC2ERKS0_(ptr noundef nonnull align 8 dereferenceable(24) initializes((0, 24)) %0, ptr noundef nonnull readonly align 8 captures(none) dereferenceable(24) %1) unnamed_addr #0 align 2 personality ptr @__gxx_personality_v0 {
  tail call void @llvm.memset.p0.i64(ptr noundef nonnull align 8 dereferenceable(24) %0, i8 0, i64 24, i1 false)
  %3 = getelementptr inbounds nuw i8, ptr %1, i64 8
  %4 = load ptr, ptr %3, align 8, !tbaa !3
  %5 = load ptr, ptr %1, align 8, !tbaa !9
  %6 = ptrtoint ptr %4 to i64
  %7 = ptrtoint ptr %5 to i64
  %8 = sub i64 %6, %7
  invoke void @_ZNSt6vectorIhSaIhEE6resizeEm(ptr noundef nonnull align 8 dereferenceable(24) %0, i64 noundef %8)
          to label %9 unwind label %16

9:                                                ; preds = %2
  %10 = load ptr, ptr %0, align 8, !tbaa !9
  %11 = load ptr, ptr %1, align 8, !tbaa !9
  %12 = load ptr, ptr %3, align 8, !tbaa !3
  %13 = ptrtoint ptr %12 to i64
  %14 = ptrtoint ptr %11 to i64
  %15 = sub i64 %13, %14
  tail call void @llvm.memcpy.p0.p0.i64(ptr nonnull align 1 %10, ptr nonnull align 1 %11, i64 %15, i1 false)
  ret void

16:                                               ; preds = %2
  %17 = landingpad { ptr, i32 }
          cleanup
  %18 = load ptr, ptr %0, align 8, !tbaa !9
  %.not.i.i.i = icmp eq ptr %18, null
  br i1 %.not.i.i.i, label %_ZNSt6vectorIhSaIhEED2Ev.exit, label %19

19:                                               ; preds = %16
  %20 = getelementptr inbounds nuw i8, ptr %0, i64 16
  %21 = load ptr, ptr %20, align 8, !tbaa !10
  %22 = ptrtoint ptr %21 to i64
  %23 = ptrtoint ptr %18 to i64
  %24 = sub i64 %22, %23
  tail call void @_ZdlPvm(ptr noundef nonnull %18, i64 noundef %24) #19
  br label %_ZNSt6vectorIhSaIhEED2Ev.exit

_ZNSt6vectorIhSaIhEED2Ev.exit:                    ; preds = %16, %19
  resume { ptr, i32 } %17
}